; Function Attrs: mustprogress uwtable
define hidden noundef nonnull align 8 dereferenceable(8) ptr @_ZNK5nlsat6solver12display_smt2ERSoRK7svectorIN3sat7literalEjE(ptr nocapture noundef nonnull readonly align 8 dereferenceable(16) %this, ptr noundef nonnull returned align 8 dereferenceable(8) %out, ptr nocapture noundef nonnull readonly align 8 dereferenceable(8) %ls) local_unnamed_addr #4 align 2 {
entry:
  %0 = load ptr, ptr %ls, align 8
  %cmp.i = icmp eq ptr %0, null
  br i1 %cmp.i, label %_ZNK5nlsat6solver12display_smt2ERSojPKN3sat7literalE.exit, label %_ZNK6vectorIN3sat7literalELb0EjE4sizeEv.exit

_ZNK6vectorIN3sat7literalELb0EjE4sizeEv.exit:     ; preds = %entry
  %arrayidx.i = getelementptr inbounds i8, ptr %0, i64 -4
  %1 = load i32, ptr %arrayidx.i, align 4
  %cmp5.not.i = icmp eq i32 %1, 0
  br i1 %cmp5.not.i, label %_ZNK5nlsat6solver12display_smt2ERSojPKN3sat7literalE.exit, label %for.body.preheader.i

for.body.preheader.i:                             ; preds = %_ZNK6vectorIN3sat7literalELb0EjE4sizeEv.exit
  %wide.trip.count.i = zext i32 %1 to i64
  br label %for.body.i

for.body.i:                                       ; preds = %for.body.i, %for.body.preheader.i
  %indvars.iv.i = phi i64 [ 0, %for.body.preheader.i ], [ %indvars.iv.next.i, %for.body.i ]
  %arrayidx.i2 = getelementptr inbounds %"class.sat::literal", ptr %0, i64 %indvars.iv.i
  %agg.tmp.sroa.0.0.copyload.i = load i32, ptr %arrayidx.i2, align 4
  %2 = load ptr, ptr %this, align 8
  %m_display_var.i.i.i = getelementptr inbounds i8, ptr %2, i64 472
  %call.i.i.i = tail call noundef nonnull align 8 dereferenceable(8) ptr @_ZNK5nlsat6solver3imp12display_smt2ERSoN3sat7literalERKN10polynomial16display_var_procE(ptr noundef nonnull align 8 dereferenceable(728) %2, ptr noundef nonnull align 8 dereferenceable(8) %out, i32 %agg.tmp.sroa.0.0.copyload.i, ptr noundef nonnull align 8 dereferenceable(8) %m_display_var.i.i.i)
  %call2.i = tail call noundef nonnull align 8 dereferenceable(8) ptr @_ZStlsISt11char_traitsIcEERSt13basic_ostreamIcT_ES5_PKc(ptr noundef nonnull align 8 dereferenceable(8) %out, ptr noundef nonnull @.str.6)
  %indvars.iv.next.i = add nuw nsw i64 %indvars.iv.i, 1
  %exitcond.not.i = icmp eq i64 %indvars.iv.next.i, %wide.trip.count.i
  br i1 %exitcond.not.i, label %_ZNK5nlsat6solver12display_smt2ERSojPKN3sat7literalE.exit, label %for.body.i, !llvm.loop !29

_ZNK5nlsat6solver12display_smt2ERSojPKN3sat7literalE.exit: ; preds = %for.body.i, %entry, %_ZNK6vectorIN3sat7literalELb0EjE4sizeEv.exit
  ret ptr %out
}